; Function Attrs: nounwind uwtable
define range(i32 -1, 1) i32 @H5Pset_modify_write_buf(i64 noundef %0, i1 noundef zeroext %1) local_unnamed_addr #0 {
  %3 = alloca i8, align 1
  %4 = zext i1 %1 to i8
  store i8 %4, ptr %3, align 1
  %5 = load i8, ptr @H5_libinit_g, align 1
  %6 = trunc i8 %5 to i1
  %7 = load i8, ptr @H5_libterm_g, align 1
  %8 = trunc i8 %7 to i1
  %9 = select i1 %6, i1 true, i1 %8
  br i1 %9, label %17, label %10

10:                                               ; preds = %2
  %11 = tail call i32 @H5_init_library() #8
  %12 = icmp slt i32 %11, 0
  br i1 %12, label %13, label %17

13:                                               ; preds = %10
  %14 = load i64, ptr @H5E_FUNC_g, align 8
  %15 = load i64, ptr @H5E_CANTINIT_g, align 8
  %16 = tail call i32 (ptr, ptr, i32, i64, i64, ptr, ...) @H5E_printf_stack(ptr noundef nonnull @.str.1, ptr noundef nonnull @__func__.H5Pset_modify_write_buf, i32 noundef 2558, i64 noundef %14, i64 noundef %15, ptr noundef nonnull @.str.2) #8
  br label %.thread22

17:                                               ; preds = %10, %2
  %18 = tail call i32 @H5CX_push() #8
  %19 = icmp slt i32 %18, 0
  br i1 %19, label %20, label %24

20:                                               ; preds = %17
  %21 = load i64, ptr @H5E_FUNC_g, align 8
  %22 = load i64, ptr @H5E_CANTSET_g, align 8
  %23 = tail call i32 (ptr, ptr, i32, i64, i64, ptr, ...) @H5E_printf_stack(ptr noundef nonnull @.str.1, ptr noundef nonnull @__func__.H5Pset_modify_write_buf, i32 noundef 2558, i64 noundef %21, i64 noundef %22, ptr noundef nonnull @.str.3) #8
  br label %.thread22

24:                                               ; preds = %17
  %25 = tail call i32 @H5E_clear_stack() #8
  %26 = icmp eq i64 %0, 0
  br i1 %26, label %27, label %31

27:                                               ; preds = %24
  %28 = load i64, ptr @H5E_PLIST_g, align 8
  %29 = load i64, ptr @H5E_BADVALUE_g, align 8
  %30 = tail call i32 (ptr, ptr, i32, i64, i64, ptr, ...) @H5E_printf_stack(ptr noundef nonnull @.str.1, ptr noundef nonnull @__func__.H5Pset_modify_write_buf, i32 noundef 2562, i64 noundef %28, i64 noundef %29, ptr noundef nonnull @.str.52) #8
  br label %.thread28

31:                                               ; preds = %24
  %32 = load i64, ptr @H5P_CLS_DATASET_XFER_ID_g, align 8
  %33 = tail call ptr @H5P_object_verify(i64 noundef %0, i64 noundef %32) #8
  %34 = icmp eq ptr %33, null
  br i1 %34, label %35, label %39

35:                                               ; preds = %31
  %36 = load i64, ptr @H5E_PLIST_g, align 8
  %37 = load i64, ptr @H5E_BADTYPE_g, align 8
  %38 = tail call i32 (ptr, ptr, i32, i64, i64, ptr, ...) @H5E_printf_stack(ptr noundef nonnull @.str.1, ptr noundef nonnull @__func__.H5Pset_modify_write_buf, i32 noundef 2565, i64 noundef %36, i64 noundef %37, ptr noundef nonnull @.str.53) #8
  br label %.thread28

39:                                               ; preds = %31
  %40 = call i32 @H5P_set(ptr noundef nonnull %33, ptr noundef nonnull @.str.59, ptr noundef nonnull %3) #8
  %41 = icmp slt i32 %40, 0
  br i1 %41, label %42, label %47

42:                                               ; preds = %39
  %43 = load i64, ptr @H5E_PLIST_g, align 8
  %44 = load i64, ptr @H5E_CANTSET_g, align 8
  %45 = call i32 (ptr, ptr, i32, i64, i64, ptr, ...) @H5E_printf_stack(ptr noundef nonnull @.str.1, ptr noundef nonnull @__func__.H5Pset_modify_write_buf, i32 noundef 2569, i64 noundef %43, i64 noundef %44, ptr noundef nonnull @.str.23) #8
  br label %.thread28

.thread28:                                        ; preds = %42, %35, %27
  %46 = call i32 @H5CX_pop(i1 noundef zeroext true) #8
  br label %.thread22

47:                                               ; preds = %39
  %48 = call i32 @H5CX_pop(i1 noundef zeroext true) #8
  br label %50

.thread22:                                        ; preds = %20, %13, %.thread28
  %49 = call i32 @H5E_dump_api_stack() #8
  br label %50

50:                                               ; preds = %47, %.thread22
  %.0111725 = phi i32 [ -1, %.thread22 ], [ 0, %47 ]
  ret i32 %.0111725
}